Certificate:
    Data:
        Version: 3 (0x2)
        Serial Number: 1 (0x1)
        Signature Algorithm: sha256WithRSAEncryption
        Issuer: C=UK, ST=Kyiv, L=Kyiv, O=NAU, OU=Faculty of Cybersecurity, Computer and Software Engineering, CN=Cybersecurity/emailAddress=1141054@stud.nau.edu.ua
        Validity
            Not Before: Dec  9 11:42:34 2022 GMT
            Not After : Dec  9 11:42:34 2023 GMT
        Subject: C=UK, ST=Kyiv, O=NAU, OU=Faculty of Cybersecurity, Computer and Software Engineering, CN=Cybersecurity/emailAddress=user@userdomain.com
        Subject Public Key Info:
            Public Key Algorithm: rsaEncryption
                RSA Public-Key: (2048 bit)
                Modulus:
                    00:f8:64:99:72:5f:f5:58:67:f5:40:93:b8:c2:17:
                    c4:00:17:51:cf:08:25:b6:0d:4f:96:77:fa:83:aa:
                    ca:36:c0:c5:e6:91:4b:04:d1:d1:4d:d9:66:9a:fe:
                    0e:55:4e:fb:09:66:58:39:d9:9b:f3:df:f8:1c:c0:
                    e8:d5:4b:26:fe:de:0c:94:06:6a:df:46:14:c9:dd:
                    6d:0a:b0:e9:43:c7:09:b7:84:30:4f:e9:3f:7f:19:
                    b4:c4:cc:30:38:e9:0a:b8:f9:18:bc:6e:9f:4c:e6:
                    de:8a:7d:bf:22:91:cc:db:c3:a4:36:1f:41:b0:aa:
                    48:2f:42:d7:06:67:39:c3:aa:bb:9b:38:31:ea:a6:
                    4b:12:08:e2:19:b7:9c:82:c1:f5:ed:44:dd:6d:90:
                    6d:1f:0e:34:ad:25:fe:8e:be:9e:6d:42:da:d5:72:
                    b4:0b:a1:b7:c2:27:a9:2d:4f:5a:d0:13:ed:ba:f7:
                    56:49:24:34:5f:82:cf:57:0a:a4:9c:52:89:11:bf:
                    9b:b4:42:0f:5a:80:16:ed:fa:f4:5d:ec:07:95:bd:
                    05:11:14:be:76:da:a6:b3:96:41:7b:99:a1:99:a1:
                    82:e6:82:0b:ff:9c:e8:0d:14:de:c2:b0:18:53:94:
                    f2:3c:92:12:4c:15:cb:8c:64:0f:2c:fd:95:76:56:
                    ef:57
                Exponent: 65537 (0x10001)
        X509v3 extensions:
            X509v3 Basic Constraints: 
                CA:FALSE
            Netscape Comment: 
                OpenSSL Generated Certificate
            X509v3 Subject Key Identifier: 
                9E:E9:8B:A3:CE:8E:5E:8E:CB:31:AE:91:FD:EE:78:FC:66:76:2B:59
            X509v3 Authority Key Identifier: 
                keyid:C3:F1:21:D0:D2:C0:A6:E8:08:DF:CB:F9:5D:CD:06:3D:99:5E:95:18

    Signature Algorithm: sha256WithRSAEncryption
         62:1d:d5:76:c8:75:19:b8:c7:d6:4e:47:c4:5a:76:82:73:fe:
         d1:d4:0e:de:d4:f9:88:4a:cd:01:38:78:ff:73:79:45:69:18:
         19:b2:01:4c:ef:d8:46:de:41:a1:b5:dc:fd:46:9e:8e:af:d6:
         2e:bf:dd:61:46:4a:69:92:02:73:24:0e:ef:8d:2c:f2:36:bb:
         b1:63:6d:4c:2d:f1:be:62:42:b1:97:67:04:47:0a:7b:46:c3:
         3f:50:43:a5:d5:d0:e4:b3:b5:4f:80:b7:a1:dc:85:15:dc:52:
         fa:64:22:06:d8:e7:55:a5:3e:e4:43:13:07:e0:f4:50:0a:08:
         2a:f0:f3:3a:d2:99:3a:b5:55:37:8a:24:a5:34:f1:5c:00:c9:
         e4:98:90:33:2e:2f:54:80:95:b9:b7:10:4e:71:d6:5c:ef:34:
         aa:05:e8:6f:3d:84:2b:9c:6a:dc:2c:ed:ac:b8:48:c0:83:19:
         2b:6e:5f:12:88:82:66:14:6e:33:e0:ce:f7:ca:b4:93:6d:e6:
         3d:53:c7:97:67:15:85:ac:f7:3b:23:2d:73:51:0b:b0:04:7b:
         a5:3c:1a:e1:02:97:69:45:73:2e:81:2e:ca:b1:17:f3:2c:83:
         92:77:11:41:9a:a2:b8:c6:28:b0:e5:f5:34:f1:e9:12:be:69:
         96:30:32:5d
-----BEGIN CERTIFICATE-----
MIIEYzCCA0ugAwIBAgIBATANBgkqhkiG9w0BAQsFADCBvzELMAkGA1UEBhMCVUsx
DTALBgNVBAgMBEt5aXYxDTALBgNVBAcMBEt5aXYxDDAKBgNVBAoMA05BVTFEMEIG
A1UECww7RmFjdWx0eSBvZiBDeWJlcnNlY3VyaXR5LCBDb21wdXRlciBhbmQgU29m
dHdhcmUgRW5naW5lZXJpbmcxFjAUBgNVBAMMDUN5YmVyc2VjdXJpdHkxJjAkBgkq
hkiG9w0BCQEWFzExNDEwNTRAc3R1ZC5uYXUuZWR1LnVhMB4XDTIyMTIwOTExNDIz
NFoXDTIzMTIwOTExNDIzNFowgawxCzAJBgNVBAYTAlVLMQ0wCwYDVQQIDARLeWl2
MQwwCgYDVQQKDANOQVUxRDBCBgNVBAsMO0ZhY3VsdHkgb2YgQ3liZXJzZWN1cml0
eSwgQ29tcHV0ZXIgYW5kIFNvZnR3YXJlIEVuZ2luZWVyaW5nMRYwFAYDVQQDDA1D
eWJlcnNlY3VyaXR5MSIwIAYJKoZIhvcNAQkBFhN1c2VyQHVzZXJkb21haW4uY29t
MIIBIjANBgkqhkiG9w0BAQEFAAOCAQ8AMIIBCgKCAQEA+GSZcl/1WGf1QJO4whfE
ABdRzwgltg1Plnf6g6rKNsDF5pFLBNHRTdlmmv4OVU77CWZYOdmb89/4HMDo1Usm
/t4MlAZq30YUyd1tCrDpQ8cJt4QwT+k/fxm0xMwwOOkKuPkYvG6fTObein2/IpHM
28OkNh9BsKpIL0LXBmc5w6q7mzgx6qZLEgjiGbecgsH17UTdbZBtHw40rSX+jr6e
bULa1XK0C6G3wiepLU9a0BPtuvdWSSQ0X4LPVwqknFKJEb+btEIPWoAW7fr0XewH
lb0FERS+dtqms5ZBe5mhmaGC5oIL/5zoDRTewrAYU5TyPJISTBXLjGQPLP2Vdlbv
VwIDAQABo3sweTAJBgNVHRMEAjAAMCwGCWCGSAGG+EIBDQQfFh1PcGVuU1NMIEdl
bmVyYXRlZCBDZXJ0aWZpY2F0ZTAdBgNVHQ4EFgQUnumLo86OXo7LMa6R/e54/GZ2
K1kwHwYDVR0jBBgwFoAUw/Eh0NLApugI38v5Xc0GPZlelRgwDQYJKoZIhvcNAQEL
BQADggEBAGId1XbIdRm4x9ZOR8RadoJz/tHUDt7U+YhKzQE4eP9zeUVpGBmyAUzv
2EbeQaG13P1Gno6v1i6/3WFGSmmSAnMkDu+NLPI2u7FjbUwt8b5iQrGXZwRHCntG
wz9QQ6XV0OSztU+At6HchRXcUvpkIgbY51WlPuRDEwfg9FAKCCrw8zrSmTq1VTeK
JKU08VwAyeSYkDMuL1SAlbm3EE5x1lzvNKoF6G89hCucatws7ay4SMCDGStuXxKI
gmYUbjPgzvfKtJNt5j1Tx5dnFYWs9zsjLXNRC7AEe6U8GuECl2lFcy6BLsqxF/Ms
g5J3EUGaorjGKLDl9TTx6RK+aZYwMl0=
-----END CERTIFICATE-----
